target datalayout = "e-m:e-p270:32:32-p271:32:32-p272:64:64-i64:64-i128:128-f80:128-n8:16:32:64-S128"
target triple = "x86_64-unknown-linux-gnu"

%struct.QEMUIOVector = type { ptr, i32, %union.anon }
%union.anon = type { %struct.anon }
%struct.anon = type { i32, %struct.iovec }
%struct.iovec = type { ptr, i64 }
%struct.IDEState = type { ptr, i8, i32, i32, i32, i32, i32, i32, i32, i64, i32, i32, [512 x i8], i32, [21 x i8], [41 x i8], i64, i8, i8, i32, i8, i8, i8, i8, i8, i8, i8, i8, i8, i8, i8, i8, i8, ptr, [9 x i8], %struct.unreported_events, i8, i8, i8, i8, i8, i32, i32, i32, i32, i32, i32, %struct.BlockAcctCookie, ptr, %struct.QEMUIOVector, %struct.anon.1, i64, i32, %struct.QEMUSGList, i32, ptr, ptr, ptr, ptr, i32, i32, i32, i8, ptr, i32, i8, i32, ptr, i32, i32, i8, i8, i32, i8, ptr, i32 }
%struct.unreported_events = type { i8, i8 }
%struct.BlockAcctCookie = type { i64, i64, i32 }
%struct.anon.1 = type { ptr }
%struct.QEMUSGList = type { ptr, i32, i32, i64, ptr, ptr }

; Function Attrs: nounwind sspstrong uwtable
define dso_local void @ide_set_sector(ptr noundef %s, i64 noundef %sector_num) #0 {
entry:
  %s.addr = alloca ptr, align 8
  %sector_num.addr = alloca i64, align 8
  %cyl = alloca i32, align 4
  %r = alloca i32, align 4
  store ptr %s, ptr %s.addr, align 8
  store i64 %sector_num, ptr %sector_num.addr, align 8
  %0 = load ptr, ptr %s.addr, align 8
  %select = getelementptr inbounds %struct.IDEState, ptr %0, i32 0, i32 28
  %1 = load i8, ptr %select, align 8
  %conv = zext i8 %1 to i32
  %and = and i32 %conv, 64
  %tobool = icmp ne i32 %and, 0
  br i1 %tobool, label %if.then, label %if.else29

if.then:                                          ; preds = %entry
  %2 = load ptr, ptr %s.addr, align 8
  %lba48 = getelementptr inbounds %struct.IDEState, ptr %2, i32 0, i32 32
  %3 = load i8, ptr %lba48, align 4
  %tobool1 = icmp ne i8 %3, 0
  br i1 %tobool1, label %if.then2, label %if.else

if.then2:                                         ; preds = %if.then
  %4 = load i64, ptr %sector_num.addr, align 8
  %conv3 = trunc i64 %4 to i8
  %5 = load ptr, ptr %s.addr, align 8
  %sector = getelementptr inbounds %struct.IDEState, ptr %5, i32 0, i32 20
  store i8 %conv3, ptr %sector, align 8
  %6 = load i64, ptr %sector_num.addr, align 8
  %shr = ashr i64 %6, 8
  %conv4 = trunc i64 %shr to i8
  %7 = load ptr, ptr %s.addr, align 8
  %lcyl = getelementptr inbounds %struct.IDEState, ptr %7, i32 0, i32 21
  store i8 %conv4, ptr %lcyl, align 1
  %8 = load i64, ptr %sector_num.addr, align 8
  %shr5 = ashr i64 %8, 16
  %conv6 = trunc i64 %shr5 to i8
  %9 = load ptr, ptr %s.addr, align 8
  %hcyl = getelementptr inbounds %struct.IDEState, ptr %9, i32 0, i32 22
  store i8 %conv6, ptr %hcyl, align 2
  %10 = load i64, ptr %sector_num.addr, align 8
  %shr7 = ashr i64 %10, 24
  %conv8 = trunc i64 %shr7 to i8
  %11 = load ptr, ptr %s.addr, align 8
  %hob_sector = getelementptr inbounds %struct.IDEState, ptr %11, i32 0, i32 25
  store i8 %conv8, ptr %hob_sector, align 1
  %12 = load i64, ptr %sector_num.addr, align 8
  %shr9 = ashr i64 %12, 32
  %conv10 = trunc i64 %shr9 to i8
  %13 = load ptr, ptr %s.addr, align 8
  %hob_lcyl = getelementptr inbounds %struct.IDEState, ptr %13, i32 0, i32 26
  store i8 %conv10, ptr %hob_lcyl, align 2
  %14 = load i64, ptr %sector_num.addr, align 8
  %shr11 = ashr i64 %14, 40
  %conv12 = trunc i64 %shr11 to i8
  %15 = load ptr, ptr %s.addr, align 8
  %hob_hcyl = getelementptr inbounds %struct.IDEState, ptr %15, i32 0, i32 27
  store i8 %conv12, ptr %hob_hcyl, align 1
  br label %if.end

if.else:                                          ; preds = %if.then
  %16 = load ptr, ptr %s.addr, align 8
  %select13 = getelementptr inbounds %struct.IDEState, ptr %16, i32 0, i32 28
  %17 = load i8, ptr %select13, align 8
  %conv14 = zext i8 %17 to i32
  %and15 = and i32 %conv14, -16
  %conv16 = sext i32 %and15 to i64
  %18 = load i64, ptr %sector_num.addr, align 8
  %shr17 = ashr i64 %18, 24
  %and18 = and i64 %shr17, 15
  %or = or i64 %conv16, %and18
  %conv19 = trunc i64 %or to i8
  %19 = load ptr, ptr %s.addr, align 8
  %select20 = getelementptr inbounds %struct.IDEState, ptr %19, i32 0, i32 28
  store i8 %conv19, ptr %select20, align 8
  %20 = load i64, ptr %sector_num.addr, align 8
  %shr21 = ashr i64 %20, 16
  %conv22 = trunc i64 %shr21 to i8
  %21 = load ptr, ptr %s.addr, align 8
  %hcyl23 = getelementptr inbounds %struct.IDEState, ptr %21, i32 0, i32 22
  store i8 %conv22, ptr %hcyl23, align 2
  %22 = load i64, ptr %sector_num.addr, align 8
  %shr24 = ashr i64 %22, 8
  %conv25 = trunc i64 %shr24 to i8
  %23 = load ptr, ptr %s.addr, align 8
  %lcyl26 = getelementptr inbounds %struct.IDEState, ptr %23, i32 0, i32 21
  store i8 %conv25, ptr %lcyl26, align 1
  %24 = load i64, ptr %sector_num.addr, align 8
  %conv27 = trunc i64 %24 to i8
  %25 = load ptr, ptr %s.addr, align 8
  %sector28 = getelementptr inbounds %struct.IDEState, ptr %25, i32 0, i32 20
  store i8 %conv27, ptr %sector28, align 8
  br label %if.end

if.end:                                           ; preds = %if.else, %if.then2
  br label %if.end55

if.else29:                                        ; preds = %entry
  %26 = load i64, ptr %sector_num.addr, align 8
  %27 = load ptr, ptr %s.addr, align 8
  %heads = getelementptr inbounds %struct.IDEState, ptr %27, i32 0, i32 6
  %28 = load i32, ptr %heads, align 4
  %29 = load ptr, ptr %s.addr, align 8
  %sectors = getelementptr inbounds %struct.IDEState, ptr %29, i32 0, i32 7
  %30 = load i32, ptr %sectors, align 8
  %mul = mul i32 %28, %30
  %conv30 = sext i32 %mul to i64
  %div = sdiv i64 %26, %conv30
  %conv31 = trunc i64 %div to i32
  store i32 %conv31, ptr %cyl, align 4
  %31 = load i64, ptr %sector_num.addr, align 8
  %32 = load ptr, ptr %s.addr, align 8
  %heads32 = getelementptr inbounds %struct.IDEState, ptr %32, i32 0, i32 6
  %33 = load i32, ptr %heads32, align 4
  %34 = load ptr, ptr %s.addr, align 8
  %sectors33 = getelementptr inbounds %struct.IDEState, ptr %34, i32 0, i32 7
  %35 = load i32, ptr %sectors33, align 8
  %mul34 = mul i32 %33, %35
  %conv35 = sext i32 %mul34 to i64
  %rem = srem i64 %31, %conv35
  %conv36 = trunc i64 %rem to i32
  store i32 %conv36, ptr %r, align 4
  %36 = load i32, ptr %cyl, align 4
  %shr37 = lshr i32 %36, 8
  %conv38 = trunc i32 %shr37 to i8
  %37 = load ptr, ptr %s.addr, align 8
  %hcyl39 = getelementptr inbounds %struct.IDEState, ptr %37, i32 0, i32 22
  store i8 %conv38, ptr %hcyl39, align 2
  %38 = load i32, ptr %cyl, align 4
  %conv40 = trunc i32 %38 to i8
  %39 = load ptr, ptr %s.addr, align 8
  %lcyl41 = getelementptr inbounds %struct.IDEState, ptr %39, i32 0, i32 21
  store i8 %conv40, ptr %lcyl41, align 1
  %40 = load ptr, ptr %s.addr, align 8
  %select42 = getelementptr inbounds %struct.IDEState, ptr %40, i32 0, i32 28
  %41 = load i8, ptr %select42, align 8
  %conv43 = zext i8 %41 to i32
  %and44 = and i32 %conv43, -16
  %42 = load i32, ptr %r, align 4
  %43 = load ptr, ptr %s.addr, align 8
  %sectors45 = getelementptr inbounds %struct.IDEState, ptr %43, i32 0, i32 7
  %44 = load i32, ptr %sectors45, align 8
  %div46 = udiv i32 %42, %44
  %and47 = and i32 %div46, 15
  %or48 = or i32 %and44, %and47
  %conv49 = trunc i32 %or48 to i8
  %45 = load ptr, ptr %s.addr, align 8
  %select50 = getelementptr inbounds %struct.IDEState, ptr %45, i32 0, i32 28
  store i8 %conv49, ptr %select50, align 8
  %46 = load i32, ptr %r, align 4
  %47 = load ptr, ptr %s.addr, align 8
  %sectors51 = getelementptr inbounds %struct.IDEState, ptr %47, i32 0, i32 7
  %48 = load i32, ptr %sectors51, align 8
  %rem52 = urem i32 %46, %48
  %add = add i32 %rem52, 1
  %conv53 = trunc i32 %add to i8
  %49 = load ptr, ptr %s.addr, align 8
  %sector54 = getelementptr inbounds %struct.IDEState, ptr %49, i32 0, i32 20
  store i8 %conv53, ptr %sector54, align 8
  br label %if.end55

if.end55:                                         ; preds = %if.else29, %if.end
  ret void
}