; Function Attrs: mustprogress nofree norecurse nosync nounwind sspstrong willreturn memory(argmem: readwrite) uwtable
define dso_local void @ide_set_sector(ptr noundef captures(none) initializes((656, 659)) %s, i64 noundef %sector_num) local_unnamed_addr #3 {
entry:
  %select = getelementptr inbounds nuw i8, ptr %s, i64 664
  %0 = load i8, ptr %select, align 8
  %conv = zext i8 %0 to i32
  %and = and i32 %conv, 64
  %tobool.not = icmp eq i32 %and, 0
  br i1 %tobool.not, label %if.else29, label %if.then

if.then:                                          ; preds = %entry
  %lba48 = getelementptr inbounds nuw i8, ptr %s, i64 668
  %1 = load i8, ptr %lba48, align 4
  %tobool1.not = icmp eq i8 %1, 0
  %shr21 = lshr i64 %sector_num, 16
  %conv22 = trunc i64 %shr21 to i8
  %hcyl23 = getelementptr inbounds nuw i8, ptr %s, i64 658
  br i1 %tobool1.not, label %if.else, label %if.then2

if.then2:                                         ; preds = %if.then
  %conv3 = trunc i64 %sector_num to i8
  %sector = getelementptr inbounds nuw i8, ptr %s, i64 656
  store i8 %conv3, ptr %sector, align 8
  %shr = lshr i64 %sector_num, 8
  %conv4 = trunc i64 %shr to i8
  %lcyl = getelementptr inbounds nuw i8, ptr %s, i64 657
  store i8 %conv4, ptr %lcyl, align 1
  store i8 %conv22, ptr %hcyl23, align 2
  %shr7 = lshr i64 %sector_num, 24
  %conv8 = trunc i64 %shr7 to i8
  %hob_sector = getelementptr inbounds nuw i8, ptr %s, i64 661
  store i8 %conv8, ptr %hob_sector, align 1
  %shr9 = lshr i64 %sector_num, 32
  %conv10 = trunc i64 %shr9 to i8
  %hob_lcyl = getelementptr inbounds nuw i8, ptr %s, i64 662
  store i8 %conv10, ptr %hob_lcyl, align 2
  %shr11 = lshr i64 %sector_num, 40
  %conv12 = trunc i64 %shr11 to i8
  %hob_hcyl = getelementptr inbounds nuw i8, ptr %s, i64 663
  store i8 %conv12, ptr %hob_hcyl, align 1
  br label %if.end55

if.else:                                          ; preds = %if.then
  %and15 = and i32 %conv, 240
  %conv16 = zext nneg i32 %and15 to i64
  %shr17 = lshr i64 %sector_num, 24
  %and18 = and i64 %shr17, 15
  %or = or disjoint i64 %and18, %conv16
  %conv19 = trunc nuw i64 %or to i8
  store i8 %conv19, ptr %select, align 8
  store i8 %conv22, ptr %hcyl23, align 2
  %shr24 = lshr i64 %sector_num, 8
  %conv25 = trunc i64 %shr24 to i8
  %lcyl26 = getelementptr inbounds nuw i8, ptr %s, i64 657
  store i8 %conv25, ptr %lcyl26, align 1
  %conv27 = trunc i64 %sector_num to i8
  %sector28 = getelementptr inbounds nuw i8, ptr %s, i64 656
  store i8 %conv27, ptr %sector28, align 8
  br label %if.end55

if.else29:                                        ; preds = %entry
  %heads = getelementptr inbounds nuw i8, ptr %s, i64 28
  %2 = load i32, ptr %heads, align 4
  %sectors = getelementptr inbounds nuw i8, ptr %s, i64 32
  %3 = load i32, ptr %sectors, align 8
  %mul = mul i32 %3, %2
  %conv30 = sext i32 %mul to i64
  %div = sdiv i64 %sector_num, %conv30
  %rem = srem i64 %sector_num, %conv30
  %conv36 = trunc nsw i64 %rem to i32
  %shr3737 = lshr i64 %div, 8
  %conv38 = trunc i64 %shr3737 to i8
  %hcyl39 = getelementptr inbounds nuw i8, ptr %s, i64 658
  store i8 %conv38, ptr %hcyl39, align 2
  %conv40 = trunc i64 %div to i8
  %lcyl41 = getelementptr inbounds nuw i8, ptr %s, i64 657
  store i8 %conv40, ptr %lcyl41, align 1
  %4 = and i8 %0, -16
  %div46 = udiv i32 %conv36, %3
  %5 = trunc i32 %div46 to i8
  %6 = and i8 %5, 15
  %conv49 = or disjoint i8 %6, %4
  store i8 %conv49, ptr %select, align 8
  %rem52 = urem i32 %conv36, %3
  %7 = trunc i32 %rem52 to i8
  %conv53 = add i8 %7, 1
  %sector54 = getelementptr inbounds nuw i8, ptr %s, i64 656
  store i8 %conv53, ptr %sector54, align 8
  br label %if.end55

if.end55:                                         ; preds = %if.then2, %if.else, %if.else29
  ret void
}